(dp0
S'sss'
p1
(lp2
(ccopy_reg
_reconstructor
p3
(cgeometry_msgs.msg._PoseStamped
PoseStamped
p4
c__builtin__
object
p5
Ntp6
Rp7
(lp8
g3
(cstd_msgs.msg._Header
Header
p9
g5
Ntp10
Rp11
(lp12
I0
ag3
(cgenpy.rostime
Time
p13
g5
Ntp14
Rp15
(lp16
I0
aI0
abaS'base_link'
p17
abag3
(cgeometry_msgs.msg._Pose
Pose
p18
g5
Ntp19
Rp20
(lp21
g3
(cgeometry_msgs.msg._Point
Point
p22
g5
Ntp23
Rp24
(lp25
F0.5015185605190049
aF0.1424236109894379
aF1.0662747476657852
abag3
(cgeometry_msgs.msg._Quaternion
Quaternion
p26
g5
Ntp27
Rp28
(lp29
F0.0034812155429885675
aF-0.0030804551994854166
aF-1.2887921412962816e-05
aF0.9999891958256392
abababS'base_link'
p30
tp31
as.